(lp0
(dp1
S'poet'
p2
VAllen Ginsberg
p3
sS'title'
p4
V Vajra Mantra
p5
sS'filename'
p6
VThe-Dial-A-Poem-Poets_01_ginsberg.mp3
p7
sa(dp8
g2
VDiana De
p9
sg4
V Revolutionary Letters Nos. 7, 13, 16, 49
p10
sg6
VThe-Dial-A-Poem-Poets_02_di_prima.mp3
p11
sa(dp12
g2
VWilliam Burroughs
p13
sg4
V excerpts from The Wild Boys
p14
sg6
VThe-Dial-A-Poem-Poets_03_burroughs.mp3
p15
sa(dp16
g2
VAnne Waldman
p17
sg4
V Pressure, Holy City
p18
sg6
VThe-Dial-A-Poem-Poets_04_waldman.mp3
p19
sa(dp20
g2
VJohn Giorno
p21
sg4
V Vajra Kisses
p22
sg6
VThe-Dial-A-Poem-Poets_05_giorno.mp3
p23
sa(dp24
g2
VEmmett Williams
p25
sg4
V Duet 
p26
sg6
VThe-Dial-A-Poem-Poets_06_williams.mp3
p27
sa(dp28
g2
VEd Sanders
p29
sg4
V Cemetery Hill
p30
sg6
VThe-Dial-A-Poem-Poets_07_sanders.mp3
p31
sa(dp32
g2
VTaylor Mead
p33
sg4
V Motorcycles
p34
sg6
VThe-Dial-A-Poem-Poets_08_mead.mp3
p35
sa(dp36
g2
VAllen Ginsberg
p37
sg4
V Green Automobile 1953
p38
sg6
VThe-Dial-A-Poem-Poets_09_ginsberg.mp3
p39
sa(dp40
g2
VRobert Creeley
p41
sg4
V The Messenger for Allen Ginsberg, I Know a Man
p42
sg6
VThe-Dial-A-Poem-Poets_10_creeley.mp3
p43
sa(dp44
g2
VHarris Schiff
p45
sg4
V Poems
p46
sg6
VThe-Dial-A-Poem-Poets_11_schiff.mp3
p47
sa(dp48
g2
VLenore Kandel
p49
sg4
V Kali
p50
sg6
VThe-Dial-A-Poem-Poets_12_kandel.mp3
p51
sa(dp52
g2
VAram Saroyan
p53
sg4
V Not a Cricket
p54
sg6
VThe-Dial-A-Poem-Poets_13_saroyan.mp3
p55
sa(dp56
g2
VPhilip Whalen
p57
sg4
V  from Scenes of Life at the Capital
p58
sg6
VThe-Dial-A-Poem-Poets_14_whalen.mp3
p59
sa(dp60
g2
VTed Berrigan
p61
sg4
V from The Sonnets
p62
sg6
VThe-Dial-A-Poem-Poets_15_berrigan.mp3
p63
sa(dp64
g2
VFrank O'Hara
p65
sg4
V Ode to Joy, To Hell With It
p66
sg6
VThe-Dial-A-Poem-Poets_16_ohara.mp3
p67
sa(dp68
g2
VJoe Brainard
p69
sg4
V from I Remember 
p70
sg6
VThe-Dial-A-Poem-Poets_17_brainard.mp3
p71
sa(dp72
g2
VClark Coolidge
p73
sg4
V Small Inventions: Suite V (plurals) secanate, Suite IV
p74
sg6
VThe-Dial-A-Poem-Poets_18_coolidge.mp3
p75
sa(dp76
g2
VJim Carroll
p77
sg4
V from The Basketball Diaries
p78
sg6
VThe-Dial-A-Poem-Poets_19_carroll.mp3
p79
sa(dp80
g2
VJohn Cage
p81
sg4
V Mushroom Haiku, excerpt from Silence
p82
sg6
VThe-Dial-A-Poem-Poets_20_cage.mp3
p83
sa(dp84
g2
VBernadette Mayer
p85
sg4
V These Stories About After the Revolution
p86
sg6
VThe-Dial-A-Poem-Poets_21_mayer.mp3
p87
sa(dp88
g2
VMichael Brownstein
p89
sg4
V Geography
p90
sg6
VThe-Dial-A-Poem-Poets_22_brownstein.mp3
p91
sa(dp92
g2
VBrion Gysin
p93
sg4
V I Am That I Am
p94
sg6
VThe-Dial-A-Poem-Poets_23_gysin.mp3
p95
sa(dp96
g2
VJohn Sinclair
p97
sg4
V The Destruction of America
p98
sg6
VThe-Dial-A-Poem-Poets_24_sinclair.mp3
p99
sa(dp100
g2
VAnne Waldman
p101
sg4
V How the Sestina (Yawn) Works
p102
sg6
VThe-Dial-A-Poem-Poets_25_waldman.mp3
p103
sa(dp104
g2
VHeathcote Williams
p105
sg4
V I Will Not Pay Taxes Until
p106
sg6
VThe-Dial-A-Poem-Poets_26_williams.mp3
p107
sa(dp108
g2
VDavid Henderson
p109
sg4
V The Louisiana Weekly No. 1, Ruckus Poem Part 1
p110
sg6
VThe-Dial-A-Poem-Poets_27_henderson.mp3
p111
sa(dp112
g2
VBobby Seale
p113
sg4
V excerpt from Fillmore East speech
p114
sg6
VThe-Dial-A-Poem-Poets_28_seale.mp3
p115
sa(dp116
g2
VKathleen Cleaver
p117
sg4
V excerpt from Fillmore East speech
p118
sg6
VThe-Dial-A-Poem-Poets_29_cleaver.mp3
p119
sa(dp120
g2
VAllen Ginsberg
p121
sg4
V Blake Song: Merrily We Welcome in the Year
p122
sg6
VThe-Dial-A-Poem-Poets_30_ginsberg.mp3
p123
sa.